target datalayout = "e-m:e-p270:32:32-p271:32:32-p272:64:64-i64:64-i128:128-f80:128-n8:16:32:64-S128"
target triple = "x86_64-pc-linux-gnu"

%struct.mspack_system = type { ptr, ptr, ptr, ptr, ptr, ptr, ptr, ptr, ptr, ptr, ptr }
%struct.mschm_decompressor_p = type { %struct.mschm_decompressor, ptr, ptr, i32 }
%struct.mschm_decompressor = type { ptr, ptr, ptr, ptr, ptr, ptr }
%struct.mschmd_header = type { i32, i32, i32, ptr, i64, ptr, ptr, %struct.mschmd_sec_uncompressed, %struct.mschmd_sec_mscompressed, i64, i32, i32, i32, i32, i32, i32, i32, ptr }
%struct.mschmd_sec_uncompressed = type { %struct.mschmd_section, i64 }
%struct.mschmd_section = type { ptr, i32 }
%struct.mschmd_sec_mscompressed = type { %struct.mschmd_section, ptr, ptr, ptr, ptr }

; Function Attrs: nounwind uwtable
define internal ptr @read_chunk(ptr noundef %0, ptr noundef %1, ptr noundef %2, i32 noundef %3) #0 {
  %5 = alloca ptr, align 8
  %6 = alloca ptr, align 8
  %7 = alloca ptr, align 8
  %8 = alloca ptr, align 8
  %9 = alloca i32, align 4
  %10 = alloca ptr, align 8
  %11 = alloca ptr, align 8
  %12 = alloca i64, align 8
  store ptr %0, ptr %6, align 8
  store ptr %1, ptr %7, align 8
  store ptr %2, ptr %8, align 8
  store i32 %3, ptr %9, align 4
  %13 = load ptr, ptr %6, align 8
  %14 = getelementptr inbounds %struct.mschm_decompressor_p, ptr %13, i32 0, i32 1
  %15 = load ptr, ptr %14, align 8
  store ptr %15, ptr %10, align 8
  %16 = load i32, ptr %9, align 4
  %17 = load ptr, ptr %7, align 8
  %18 = getelementptr inbounds %struct.mschmd_header, ptr %17, i32 0, i32 10
  %19 = load i32, ptr %18, align 8
  %20 = icmp uge i32 %16, %19
  br i1 %20, label %21, label %22

21:                                               ; preds = %4
  store ptr null, ptr %5, align 8
  br label %171

22:                                               ; preds = %4
  %23 = load ptr, ptr %7, align 8
  %24 = getelementptr inbounds %struct.mschmd_header, ptr %23, i32 0, i32 17
  %25 = load ptr, ptr %24, align 8
  %26 = icmp ne ptr %25, null
  br i1 %26, label %50, label %27

27:                                               ; preds = %22
  %28 = load ptr, ptr %7, align 8
  %29 = getelementptr inbounds %struct.mschmd_header, ptr %28, i32 0, i32 10
  %30 = load i32, ptr %29, align 8
  %31 = zext i32 %30 to i64
  %32 = mul i64 8, %31
  store i64 %32, ptr %12, align 8
  %33 = load ptr, ptr %10, align 8
  %34 = getelementptr inbounds %struct.mspack_system, ptr %33, i32 0, i32 7
  %35 = load ptr, ptr %34, align 8
  %36 = load ptr, ptr %10, align 8
  %37 = load i64, ptr %12, align 8
  %38 = call ptr %35(ptr noundef %36, i64 noundef %37)
  %39 = load ptr, ptr %7, align 8
  %40 = getelementptr inbounds %struct.mschmd_header, ptr %39, i32 0, i32 17
  store ptr %38, ptr %40, align 8
  %41 = icmp ne ptr %38, null
  br i1 %41, label %45, label %42

42:                                               ; preds = %27
  %43 = load ptr, ptr %6, align 8
  %44 = getelementptr inbounds %struct.mschm_decompressor_p, ptr %43, i32 0, i32 3
  store i32 6, ptr %44, align 8
  store ptr null, ptr %5, align 8
  br label %171

45:                                               ; preds = %27
  %46 = load ptr, ptr %7, align 8
  %47 = getelementptr inbounds %struct.mschmd_header, ptr %46, i32 0, i32 17
  %48 = load ptr, ptr %47, align 8
  %49 = load i64, ptr %12, align 8
  call void @llvm.memset.p0.i64(ptr align 8 %48, i8 0, i64 %49, i1 false)
  br label %50

50:                                               ; preds = %45, %22
  %51 = load ptr, ptr %7, align 8
  %52 = getelementptr inbounds %struct.mschmd_header, ptr %51, i32 0, i32 17
  %53 = load ptr, ptr %52, align 8
  %54 = load i32, ptr %9, align 4
  %55 = zext i32 %54 to i64
  %56 = getelementptr inbounds ptr, ptr %53, i64 %55
  %57 = load ptr, ptr %56, align 8
  %58 = icmp ne ptr %57, null
  br i1 %58, label %59, label %67

59:                                               ; preds = %50
  %60 = load ptr, ptr %7, align 8
  %61 = getelementptr inbounds %struct.mschmd_header, ptr %60, i32 0, i32 17
  %62 = load ptr, ptr %61, align 8
  %63 = load i32, ptr %9, align 4
  %64 = zext i32 %63 to i64
  %65 = getelementptr inbounds ptr, ptr %62, i64 %64
  %66 = load ptr, ptr %65, align 8
  store ptr %66, ptr %5, align 8
  br label %171

67:                                               ; preds = %50
  %68 = load ptr, ptr %10, align 8
  %69 = getelementptr inbounds %struct.mspack_system, ptr %68, i32 0, i32 7
  %70 = load ptr, ptr %69, align 8
  %71 = load ptr, ptr %10, align 8
  %72 = load ptr, ptr %7, align 8
  %73 = getelementptr inbounds %struct.mschmd_header, ptr %72, i32 0, i32 11
  %74 = load i32, ptr %73, align 4
  %75 = zext i32 %74 to i64
  %76 = call ptr %70(ptr noundef %71, i64 noundef %75)
  store ptr %76, ptr %11, align 8
  %77 = icmp ne ptr %76, null
  br i1 %77, label %81, label %78

78:                                               ; preds = %67
  %79 = load ptr, ptr %6, align 8
  %80 = getelementptr inbounds %struct.mschm_decompressor_p, ptr %79, i32 0, i32 3
  store i32 6, ptr %80, align 8
  store ptr null, ptr %5, align 8
  br label %171

81:                                               ; preds = %67
  %82 = load ptr, ptr %10, align 8
  %83 = getelementptr inbounds %struct.mspack_system, ptr %82, i32 0, i32 4
  %84 = load ptr, ptr %83, align 8
  %85 = load ptr, ptr %8, align 8
  %86 = load ptr, ptr %7, align 8
  %87 = getelementptr inbounds %struct.mschmd_header, ptr %86, i32 0, i32 9
  %88 = load i64, ptr %87, align 8
  %89 = load i32, ptr %9, align 4
  %90 = load ptr, ptr %7, align 8
  %91 = getelementptr inbounds %struct.mschmd_header, ptr %90, i32 0, i32 11
  %92 = load i32, ptr %91, align 4
  %93 = mul i32 %89, %92
  %94 = zext i32 %93 to i64
  %95 = add nsw i64 %88, %94
  %96 = call i32 %84(ptr noundef %85, i64 noundef %95, i32 noundef 0)
  %97 = icmp ne i32 %96, 0
  br i1 %97, label %98, label %105

98:                                               ; preds = %81
  %99 = load ptr, ptr %6, align 8
  %100 = getelementptr inbounds %struct.mschm_decompressor_p, ptr %99, i32 0, i32 3
  store i32 5, ptr %100, align 8
  %101 = load ptr, ptr %10, align 8
  %102 = getelementptr inbounds %struct.mspack_system, ptr %101, i32 0, i32 8
  %103 = load ptr, ptr %102, align 8
  %104 = load ptr, ptr %11, align 8
  call void %103(ptr noundef %104)
  store ptr null, ptr %5, align 8
  br label %171

105:                                              ; preds = %81
  %106 = load ptr, ptr %10, align 8
  %107 = getelementptr inbounds %struct.mspack_system, ptr %106, i32 0, i32 2
  %108 = load ptr, ptr %107, align 8
  %109 = load ptr, ptr %8, align 8
  %110 = load ptr, ptr %11, align 8
  %111 = load ptr, ptr %7, align 8
  %112 = getelementptr inbounds %struct.mschmd_header, ptr %111, i32 0, i32 11
  %113 = load i32, ptr %112, align 4
  %114 = call i32 %108(ptr noundef %109, ptr noundef %110, i32 noundef %113)
  %115 = load ptr, ptr %7, align 8
  %116 = getelementptr inbounds %struct.mschmd_header, ptr %115, i32 0, i32 11
  %117 = load i32, ptr %116, align 4
  %118 = icmp ne i32 %114, %117
  br i1 %118, label %119, label %126

119:                                              ; preds = %105
  %120 = load ptr, ptr %6, align 8
  %121 = getelementptr inbounds %struct.mschm_decompressor_p, ptr %120, i32 0, i32 3
  store i32 3, ptr %121, align 8
  %122 = load ptr, ptr %10, align 8
  %123 = getelementptr inbounds %struct.mspack_system, ptr %122, i32 0, i32 8
  %124 = load ptr, ptr %123, align 8
  %125 = load ptr, ptr %11, align 8
  call void %124(ptr noundef %125)
  store ptr null, ptr %5, align 8
  br label %171

126:                                              ; preds = %105
  %127 = load ptr, ptr %11, align 8
  %128 = getelementptr inbounds i8, ptr %127, i64 0
  %129 = load i8, ptr %128, align 1
  %130 = zext i8 %129 to i32
  %131 = icmp eq i32 %130, 80
  br i1 %131, label %132, label %156

132:                                              ; preds = %126
  %133 = load ptr, ptr %11, align 8
  %134 = getelementptr inbounds i8, ptr %133, i64 1
  %135 = load i8, ptr %134, align 1
  %136 = zext i8 %135 to i32
  %137 = icmp eq i32 %136, 77
  br i1 %137, label %138, label %156

138:                                              ; preds = %132
  %139 = load ptr, ptr %11, align 8
  %140 = getelementptr inbounds i8, ptr %139, i64 2
  %141 = load i8, ptr %140, align 1
  %142 = zext i8 %141 to i32
  %143 = icmp eq i32 %142, 71
  br i1 %143, label %144, label %156

144:                                              ; preds = %138
  %145 = load ptr, ptr %11, align 8
  %146 = getelementptr inbounds i8, ptr %145, i64 3
  %147 = load i8, ptr %146, align 1
  %148 = zext i8 %147 to i32
  %149 = icmp eq i32 %148, 76
  br i1 %149, label %163, label %150

150:                                              ; preds = %144
  %151 = load ptr, ptr %11, align 8
  %152 = getelementptr inbounds i8, ptr %151, i64 3
  %153 = load i8, ptr %152, align 1
  %154 = zext i8 %153 to i32
  %155 = icmp eq i32 %154, 73
  br i1 %155, label %163, label %156

156:                                              ; preds = %150, %138, %132, %126
  %157 = load ptr, ptr %6, align 8
  %158 = getelementptr inbounds %struct.mschm_decompressor_p, ptr %157, i32 0, i32 3
  store i32 5, ptr %158, align 8
  %159 = load ptr, ptr %10, align 8
  %160 = getelementptr inbounds %struct.mspack_system, ptr %159, i32 0, i32 8
  %161 = load ptr, ptr %160, align 8
  %162 = load ptr, ptr %11, align 8
  call void %161(ptr noundef %162)
  store ptr null, ptr %5, align 8
  br label %171

163:                                              ; preds = %150, %144
  %164 = load ptr, ptr %11, align 8
  %165 = load ptr, ptr %7, align 8
  %166 = getelementptr inbounds %struct.mschmd_header, ptr %165, i32 0, i32 17
  %167 = load ptr, ptr %166, align 8
  %168 = load i32, ptr %9, align 4
  %169 = zext i32 %168 to i64
  %170 = getelementptr inbounds ptr, ptr %167, i64 %169
  store ptr %164, ptr %170, align 8
  store ptr %164, ptr %5, align 8
  br label %171

171:                                              ; preds = %163, %156, %119, %98, %78, %59, %42, %21
  %172 = load ptr, ptr %5, align 8
  ret ptr %172
}