; Function Attrs: nounwind uwtable
define internal fastcc ptr @read_chunk(ptr nocapture noundef %0, ptr nocapture noundef %1, ptr noundef %2, i32 noundef %3) unnamed_addr #0 {
  %5 = getelementptr inbounds i8, ptr %0, i64 48
  %6 = load ptr, ptr %5, align 8
  %7 = getelementptr inbounds i8, ptr %1, i64 128
  %8 = load i32, ptr %7, align 8
  %.not = icmp ugt i32 %8, %3
  br i1 %.not, label %9, label %80

9:                                                ; preds = %4
  %10 = getelementptr inbounds i8, ptr %1, i64 160
  %11 = load ptr, ptr %10, align 8
  %.not53 = icmp eq ptr %11, null
  br i1 %.not53, label %12, label %21

12:                                               ; preds = %9
  %13 = zext i32 %8 to i64
  %14 = shl nuw nsw i64 %13, 3
  %15 = getelementptr inbounds i8, ptr %6, i64 56
  %16 = load ptr, ptr %15, align 8
  %17 = tail call ptr %16(ptr noundef %6, i64 noundef %14) #12
  store ptr %17, ptr %10, align 8
  %.not54 = icmp eq ptr %17, null
  br i1 %.not54, label %18, label %20

18:                                               ; preds = %12
  %19 = getelementptr inbounds i8, ptr %0, i64 64
  store i32 6, ptr %19, align 8
  br label %80

20:                                               ; preds = %12
  tail call void @llvm.memset.p0.i64(ptr nonnull align 8 %17, i8 0, i64 %14, i1 false)
  %.pre = load ptr, ptr %10, align 8
  br label %21

21:                                               ; preds = %20, %9
  %22 = phi ptr [ %.pre, %20 ], [ %11, %9 ]
  %23 = zext i32 %3 to i64
  %24 = getelementptr inbounds ptr, ptr %22, i64 %23
  %25 = load ptr, ptr %24, align 8
  %.not55 = icmp eq ptr %25, null
  br i1 %.not55, label %26, label %80

26:                                               ; preds = %21
  %27 = getelementptr inbounds i8, ptr %6, i64 56
  %28 = load ptr, ptr %27, align 8
  %29 = getelementptr inbounds i8, ptr %1, i64 132
  %30 = load i32, ptr %29, align 4
  %31 = zext i32 %30 to i64
  %32 = tail call ptr %28(ptr noundef %6, i64 noundef %31) #12
  %.not56 = icmp eq ptr %32, null
  br i1 %.not56, label %33, label %35

33:                                               ; preds = %26
  %34 = getelementptr inbounds i8, ptr %0, i64 64
  store i32 6, ptr %34, align 8
  br label %80

35:                                               ; preds = %26
  %36 = getelementptr inbounds i8, ptr %6, i64 32
  %37 = load ptr, ptr %36, align 8
  %38 = getelementptr inbounds i8, ptr %1, i64 120
  %39 = load i64, ptr %38, align 8
  %40 = load i32, ptr %29, align 4
  %41 = mul i32 %40, %3
  %42 = zext i32 %41 to i64
  %43 = add nsw i64 %39, %42
  %44 = tail call i32 %37(ptr noundef %2, i64 noundef %43, i32 noundef 0) #12
  %.not57 = icmp eq i32 %44, 0
  br i1 %.not57, label %49, label %45

45:                                               ; preds = %35
  %46 = getelementptr inbounds i8, ptr %0, i64 64
  store i32 5, ptr %46, align 8
  %47 = getelementptr inbounds i8, ptr %6, i64 64
  %48 = load ptr, ptr %47, align 8
  tail call void %48(ptr noundef nonnull %32) #12
  br label %80

49:                                               ; preds = %35
  %50 = getelementptr inbounds i8, ptr %6, i64 16
  %51 = load ptr, ptr %50, align 8
  %52 = load i32, ptr %29, align 4
  %53 = tail call i32 %51(ptr noundef %2, ptr noundef nonnull %32, i32 noundef %52) #12
  %54 = load i32, ptr %29, align 4
  %.not58 = icmp eq i32 %53, %54
  br i1 %.not58, label %59, label %55

55:                                               ; preds = %49
  %56 = getelementptr inbounds i8, ptr %0, i64 64
  store i32 3, ptr %56, align 8
  %57 = getelementptr inbounds i8, ptr %6, i64 64
  %58 = load ptr, ptr %57, align 8
  tail call void %58(ptr noundef nonnull %32) #12
  br label %80

59:                                               ; preds = %49
  %60 = load i8, ptr %32, align 1
  %61 = icmp eq i8 %60, 80
  br i1 %61, label %62, label %73

62:                                               ; preds = %59
  %63 = getelementptr inbounds i8, ptr %32, i64 1
  %64 = load i8, ptr %63, align 1
  %65 = icmp eq i8 %64, 77
  br i1 %65, label %66, label %73

66:                                               ; preds = %62
  %67 = getelementptr inbounds i8, ptr %32, i64 2
  %68 = load i8, ptr %67, align 1
  %69 = icmp eq i8 %68, 71
  br i1 %69, label %70, label %73

70:                                               ; preds = %66
  %71 = getelementptr inbounds i8, ptr %32, i64 3
  %72 = load i8, ptr %71, align 1
  switch i8 %72, label %73 [
    i8 76, label %77
    i8 73, label %77
  ]

73:                                               ; preds = %70, %66, %62, %59
  %74 = getelementptr inbounds i8, ptr %0, i64 64
  store i32 5, ptr %74, align 8
  %75 = getelementptr inbounds i8, ptr %6, i64 64
  %76 = load ptr, ptr %75, align 8
  tail call void %76(ptr noundef nonnull %32) #12
  br label %80

77:                                               ; preds = %70, %70
  %78 = load ptr, ptr %10, align 8
  %79 = getelementptr inbounds ptr, ptr %78, i64 %23
  store ptr %32, ptr %79, align 8
  br label %80

80:                                               ; preds = %21, %4, %77, %73, %55, %45, %33, %18
  %.0 = phi ptr [ null, %45 ], [ null, %55 ], [ %32, %77 ], [ null, %73 ], [ null, %33 ], [ null, %18 ], [ null, %4 ], [ %25, %21 ]
  ret ptr %.0
}